target datalayout = "e-m:e-p270:32:32-p271:32:32-p272:64:64-i64:64-i128:128-f80:128-n8:16:32:64-S128"
target triple = "x86_64-pc-linux-gnu"

%"class.cv::bioinspired::BasicRetinaFilter" = type { %"class.cv::bioinspired::TemplateBuffer", %"class.std::valarray", i32, i32, %"class.std::valarray", %"class.std::valarray", %"class.std::valarray", float, float, float, float, float, float, float, float }
%"class.cv::bioinspired::TemplateBuffer" = type { ptr, %"class.std::valarray", i64, i64, i64, i64, i64 }
%"class.std::valarray" = type { i64, ptr }

; Function Attrs: inlinehint mustprogress nounwind uwtable
define linkonce_odr hidden noundef i32 @_ZN2cv11bioinspired14TemplateBufferIfE12getNBcolumnsEv(ptr noundef nonnull align 8 dereferenceable(64) %0) #7 comdat align 2 {
  %2 = alloca ptr, align 8
  store ptr %0, ptr %2, align 8, !tbaa !56
  %3 = load ptr, ptr %2, align 8
  %4 = getelementptr inbounds nuw %"class.cv::bioinspired::TemplateBuffer", ptr %3, i32 0, i32 3
  %5 = load i64, ptr %4, align 8, !tbaa !57
  %6 = trunc i64 %5 to i32
  ret i32 %6
}

; Function Attrs: inlinehint mustprogress nounwind uwtable
define linkonce_odr hidden noundef i32 @_ZN2cv11bioinspired14TemplateBufferIfE9getNBrowsEv(ptr noundef nonnull align 8 dereferenceable(64) %0) #7 comdat align 2 {
  %2 = alloca ptr, align 8
  store ptr %0, ptr %2, align 8, !tbaa !56
  %3 = load ptr, ptr %2, align 8
  %4 = getelementptr inbounds nuw %"class.cv::bioinspired::TemplateBuffer", ptr %3, i32 0, i32 2
  %5 = load i64, ptr %4, align 8, !tbaa !73
  %6 = trunc i64 %5 to i32
  ret i32 %6
}

; Function Attrs: mustprogress uwtable
define hidden void @_ZN2cv11bioinspired11RetinaColor27_getNormalizedContoursImageEPKfPf(ptr noundef nonnull align 8 dereferenceable(349) %0, ptr noundef %1, ptr noundef %2) #4 align 2 {
  %4 = alloca ptr, align 8
  %5 = alloca ptr, align 8
  %6 = alloca ptr, align 8
  %7 = alloca float, align 4
  %8 = alloca float, align 4
  %9 = alloca i32, align 4
  %10 = alloca i32, align 4
  %11 = alloca i32, align 4
  %12 = alloca i32, align 4
  %13 = alloca i32, align 4
  store ptr %0, ptr %4, align 8, !tbaa !3
  store ptr %1, ptr %5, align 8, !tbaa !39
  store ptr %2, ptr %6, align 8, !tbaa !39
  %14 = load ptr, ptr %4, align 8
  call void @llvm.lifetime.start.p0(i64 4, ptr %7) #3
  store float 0.000000e+00, ptr %7, align 4, !tbaa !30
  call void @llvm.lifetime.start.p0(i64 4, ptr %8) #3
  store float 0x3FD5555560000000, ptr %8, align 4, !tbaa !30
  call void @llvm.lifetime.start.p0(i64 4, ptr %9) #3
  store i32 1, ptr %9, align 4, !tbaa !8
  br label %15

15:                                               ; preds = %152, %3
  %16 = load i32, ptr %9, align 4, !tbaa !8
  %17 = getelementptr inbounds i8, ptr %14, i64 8
  %18 = getelementptr inbounds nuw %"class.cv::bioinspired::BasicRetinaFilter", ptr %17, i32 0, i32 0
  %19 = call noundef i32 @_ZN2cv11bioinspired14TemplateBufferIfE9getNBrowsEv(ptr noundef nonnull align 8 dereferenceable(64) %18)
  %20 = sub i32 %19, 1
  %21 = icmp ult i32 %16, %20
  br i1 %21, label %23, label %22

22:                                               ; preds = %15
  store i32 2, ptr %10, align 4
  call void @llvm.lifetime.end.p0(i64 4, ptr %9) #3
  br label %155

23:                                               ; preds = %15
  call void @llvm.lifetime.start.p0(i64 4, ptr %11) #3
  store i32 1, ptr %11, align 4, !tbaa !8
  br label %24

24:                                               ; preds = %148, %23
  %25 = load i32, ptr %11, align 4, !tbaa !8
  %26 = getelementptr inbounds i8, ptr %14, i64 8
  %27 = getelementptr inbounds nuw %"class.cv::bioinspired::BasicRetinaFilter", ptr %26, i32 0, i32 0
  %28 = call noundef i32 @_ZN2cv11bioinspired14TemplateBufferIfE12getNBcolumnsEv(ptr noundef nonnull align 8 dereferenceable(64) %27)
  %29 = sub i32 %28, 1
  %30 = icmp ult i32 %25, %29
  br i1 %30, label %32, label %31

31:                                               ; preds = %24
  store i32 5, ptr %10, align 4
  call void @llvm.lifetime.end.p0(i64 4, ptr %11) #3
  br label %151

32:                                               ; preds = %24
  call void @llvm.lifetime.start.p0(i64 4, ptr %12) #3
  %33 = load i32, ptr %11, align 4, !tbaa !8
  %34 = load i32, ptr %9, align 4, !tbaa !8
  %35 = getelementptr inbounds i8, ptr %14, i64 8
  %36 = getelementptr inbounds nuw %"class.cv::bioinspired::BasicRetinaFilter", ptr %35, i32 0, i32 0
  %37 = call noundef i32 @_ZN2cv11bioinspired14TemplateBufferIfE12getNBcolumnsEv(ptr noundef nonnull align 8 dereferenceable(64) %36)
  %38 = mul i32 %34, %37
  %39 = add i32 %33, %38
  store i32 %39, ptr %12, align 4, !tbaa !8
  %40 = load float, ptr %8, align 4, !tbaa !30
  %41 = fpext float %40 to double
  %42 = load ptr, ptr %5, align 8, !tbaa !39
  %43 = load i32, ptr %12, align 4, !tbaa !8
  %44 = zext i32 %43 to i64
  %45 = getelementptr inbounds nuw float, ptr %42, i64 %44
  %46 = load float, ptr %45, align 4, !tbaa !30
  %47 = load ptr, ptr %5, align 8, !tbaa !39
  %48 = load i32, ptr %12, align 4, !tbaa !8
  %49 = sub i32 %48, 1
  %50 = zext i32 %49 to i64
  %51 = getelementptr inbounds nuw float, ptr %47, i64 %50
  %52 = load float, ptr %51, align 4, !tbaa !30
  %53 = fneg float %52
  %54 = call float @llvm.fmuladd.f32(float 8.000000e+00, float %46, float %53)
  %55 = load ptr, ptr %5, align 8, !tbaa !39
  %56 = load i32, ptr %12, align 4, !tbaa !8
  %57 = add i32 %56, 1
  %58 = zext i32 %57 to i64
  %59 = getelementptr inbounds nuw float, ptr %55, i64 %58
  %60 = load float, ptr %59, align 4, !tbaa !30
  %61 = fsub float %54, %60
  %62 = load ptr, ptr %5, align 8, !tbaa !39
  %63 = load i32, ptr %12, align 4, !tbaa !8
  %64 = getelementptr inbounds i8, ptr %14, i64 8
  %65 = getelementptr inbounds nuw %"class.cv::bioinspired::BasicRetinaFilter", ptr %64, i32 0, i32 0
  %66 = call noundef i32 @_ZN2cv11bioinspired14TemplateBufferIfE12getNBcolumnsEv(ptr noundef nonnull align 8 dereferenceable(64) %65)
  %67 = sub i32 %63, %66
  %68 = zext i32 %67 to i64
  %69 = getelementptr inbounds nuw float, ptr %62, i64 %68
  %70 = load float, ptr %69, align 4, !tbaa !30
  %71 = fsub float %61, %70
  %72 = load ptr, ptr %5, align 8, !tbaa !39
  %73 = load i32, ptr %12, align 4, !tbaa !8
  %74 = getelementptr inbounds i8, ptr %14, i64 8
  %75 = getelementptr inbounds nuw %"class.cv::bioinspired::BasicRetinaFilter", ptr %74, i32 0, i32 0
  %76 = call noundef i32 @_ZN2cv11bioinspired14TemplateBufferIfE12getNBcolumnsEv(ptr noundef nonnull align 8 dereferenceable(64) %75)
  %77 = add i32 %73, %76
  %78 = zext i32 %77 to i64
  %79 = getelementptr inbounds nuw float, ptr %72, i64 %78
  %80 = load float, ptr %79, align 4, !tbaa !30
  %81 = fsub float %71, %80
  %82 = load ptr, ptr %5, align 8, !tbaa !39
  %83 = load i32, ptr %12, align 4, !tbaa !8
  %84 = sub i32 %83, 1
  %85 = getelementptr inbounds i8, ptr %14, i64 8
  %86 = getelementptr inbounds nuw %"class.cv::bioinspired::BasicRetinaFilter", ptr %85, i32 0, i32 0
  %87 = call noundef i32 @_ZN2cv11bioinspired14TemplateBufferIfE12getNBcolumnsEv(ptr noundef nonnull align 8 dereferenceable(64) %86)
  %88 = sub i32 %84, %87
  %89 = zext i32 %88 to i64
  %90 = getelementptr inbounds nuw float, ptr %82, i64 %89
  %91 = load float, ptr %90, align 4, !tbaa !30
  %92 = fsub float %81, %91
  %93 = load ptr, ptr %5, align 8, !tbaa !39
  %94 = load i32, ptr %12, align 4, !tbaa !8
  %95 = sub i32 %94, 1
  %96 = getelementptr inbounds i8, ptr %14, i64 8
  %97 = getelementptr inbounds nuw %"class.cv::bioinspired::BasicRetinaFilter", ptr %96, i32 0, i32 0
  %98 = call noundef i32 @_ZN2cv11bioinspired14TemplateBufferIfE12getNBcolumnsEv(ptr noundef nonnull align 8 dereferenceable(64) %97)
  %99 = add i32 %95, %98
  %100 = zext i32 %99 to i64
  %101 = getelementptr inbounds nuw float, ptr %93, i64 %100
  %102 = load float, ptr %101, align 4, !tbaa !30
  %103 = fsub float %92, %102
  %104 = load ptr, ptr %5, align 8, !tbaa !39
  %105 = load i32, ptr %12, align 4, !tbaa !8
  %106 = add i32 %105, 1
  %107 = getelementptr inbounds i8, ptr %14, i64 8
  %108 = getelementptr inbounds nuw %"class.cv::bioinspired::BasicRetinaFilter", ptr %107, i32 0, i32 0
  %109 = call noundef i32 @_ZN2cv11bioinspired14TemplateBufferIfE12getNBcolumnsEv(ptr noundef nonnull align 8 dereferenceable(64) %108)
  %110 = sub i32 %106, %109
  %111 = zext i32 %110 to i64
  %112 = getelementptr inbounds nuw float, ptr %104, i64 %111
  %113 = load float, ptr %112, align 4, !tbaa !30
  %114 = fsub float %103, %113
  %115 = load ptr, ptr %5, align 8, !tbaa !39
  %116 = load i32, ptr %12, align 4, !tbaa !8
  %117 = add i32 %116, 1
  %118 = getelementptr inbounds i8, ptr %14, i64 8
  %119 = getelementptr inbounds nuw %"class.cv::bioinspired::BasicRetinaFilter", ptr %118, i32 0, i32 0
  %120 = call noundef i32 @_ZN2cv11bioinspired14TemplateBufferIfE12getNBcolumnsEv(ptr noundef nonnull align 8 dereferenceable(64) %119)
  %121 = add i32 %117, %120
  %122 = zext i32 %121 to i64
  %123 = getelementptr inbounds nuw float, ptr %115, i64 %122
  %124 = load float, ptr %123, align 4, !tbaa !30
  %125 = fsub float %114, %124
  %126 = fpext float %125 to double
  %127 = call double @llvm.fabs.f64(double %126)
  %128 = fmul double %41, %127
  %129 = fptrunc double %128 to float
  %130 = load ptr, ptr %6, align 8, !tbaa !39
  %131 = load i32, ptr %12, align 4, !tbaa !8
  %132 = zext i32 %131 to i64
  %133 = getelementptr inbounds nuw float, ptr %130, i64 %132
  store float %129, ptr %133, align 4, !tbaa !30
  %134 = load ptr, ptr %6, align 8, !tbaa !39
  %135 = load i32, ptr %12, align 4, !tbaa !8
  %136 = zext i32 %135 to i64
  %137 = getelementptr inbounds nuw float, ptr %134, i64 %136
  %138 = load float, ptr %137, align 4, !tbaa !30
  %139 = load float, ptr %7, align 4, !tbaa !30
  %140 = fcmp ogt float %138, %139
  br i1 %140, label %141, label %147

141:                                              ; preds = %32
  %142 = load ptr, ptr %6, align 8, !tbaa !39
  %143 = load i32, ptr %12, align 4, !tbaa !8
  %144 = zext i32 %143 to i64
  %145 = getelementptr inbounds nuw float, ptr %142, i64 %144
  %146 = load float, ptr %145, align 4, !tbaa !30
  store float %146, ptr %7, align 4, !tbaa !30
  br label %147

147:                                              ; preds = %141, %32
  call void @llvm.lifetime.end.p0(i64 4, ptr %12) #3
  br label %148

148:                                              ; preds = %147
  %149 = load i32, ptr %11, align 4, !tbaa !8
  %150 = add i32 %149, 1
  store i32 %150, ptr %11, align 4, !tbaa !8
  br label %24, !llvm.loop !111

151:                                              ; preds = %31
  br label %152

152:                                              ; preds = %151
  %153 = load i32, ptr %9, align 4, !tbaa !8
  %154 = add i32 %153, 1
  store i32 %154, ptr %9, align 4, !tbaa !8
  br label %15, !llvm.loop !112

155:                                              ; preds = %22
  %156 = load float, ptr %7, align 4, !tbaa !30
  %157 = fdiv float 1.000000e+00, %156
  store float %157, ptr %8, align 4, !tbaa !30
  call void @llvm.lifetime.start.p0(i64 4, ptr %13) #3
  store i32 1, ptr %13, align 4, !tbaa !8
  br label %158

158:                                              ; preds = %178, %155
  %159 = load i32, ptr %13, align 4, !tbaa !8
  %160 = getelementptr inbounds i8, ptr %14, i64 8
  %161 = getelementptr inbounds nuw %"class.cv::bioinspired::BasicRetinaFilter", ptr %160, i32 0, i32 0
  %162 = call noundef i32 @_ZN2cv11bioinspired14TemplateBufferIfE9getNBrowsEv(ptr noundef nonnull align 8 dereferenceable(64) %161)
  %163 = sub i32 %162, 1
  %164 = icmp ult i32 %159, %163
  br i1 %164, label %166, label %165

165:                                              ; preds = %158
  store i32 8, ptr %10, align 4
  call void @llvm.lifetime.end.p0(i64 4, ptr %13) #3
  br label %181

166:                                              ; preds = %158
  %167 = load ptr, ptr %6, align 8, !tbaa !39
  %168 = load i32, ptr %13, align 4, !tbaa !8
  %169 = zext i32 %168 to i64
  %170 = getelementptr inbounds nuw float, ptr %167, i64 %169
  %171 = load float, ptr %170, align 4, !tbaa !30
  %172 = load float, ptr %8, align 4, !tbaa !30
  %173 = fmul float %171, %172
  %174 = load ptr, ptr %6, align 8, !tbaa !39
  %175 = load i32, ptr %13, align 4, !tbaa !8
  %176 = zext i32 %175 to i64
  %177 = getelementptr inbounds nuw float, ptr %174, i64 %176
  store float %173, ptr %177, align 4, !tbaa !30
  br label %178

178:                                              ; preds = %166
  %179 = load i32, ptr %13, align 4, !tbaa !8
  %180 = add i32 %179, 1
  store i32 %180, ptr %13, align 4, !tbaa !8
  br label %158, !llvm.loop !113

181:                                              ; preds = %165
  call void @llvm.lifetime.end.p0(i64 4, ptr %8) #3
  call void @llvm.lifetime.end.p0(i64 4, ptr %7) #3
  ret void
}