; Function Attrs: mustprogress nofree norecurse nosync nounwind memory(argmem: readwrite) uwtable
define hidden void @_ZN2cv11bioinspired11RetinaColor27_getNormalizedContoursImageEPKfPf(ptr noundef nonnull readonly align 8 captures(none) dereferenceable(349) %0, ptr noundef readonly captures(none) %1, ptr noundef captures(none) %2) local_unnamed_addr #10 align 2 {
  %4 = getelementptr inbounds nuw i8, ptr %0, i64 32
  %5 = load i64, ptr %4, align 8, !tbaa !150
  %6 = trunc i64 %5 to i32
  %7 = add i32 %6, -1
  %8 = icmp ugt i32 %7, 1
  br i1 %8, label %.preheader.lr.ph, label %._crit_edge

.preheader.lr.ph:                                 ; preds = %3
  %9 = getelementptr inbounds nuw i8, ptr %0, i64 40
  %10 = load i64, ptr %9, align 8, !tbaa !62
  %11 = trunc i64 %10 to i32
  %12 = add i32 %11, -1
  %13 = icmp ugt i32 %12, 1
  br i1 %13, label %.preheader.us.preheader, label %.lr.ph.preheader

.preheader.us.preheader:                          ; preds = %.preheader.lr.ph
  %wide.trip.count = zext i32 %12 to i64
  br label %.preheader.us

.preheader.us:                                    ; preds = %.preheader.us.preheader, %._crit_edge.us
  %.04047.us = phi float [ %.2.us, %._crit_edge.us ], [ 0.000000e+00, %.preheader.us.preheader ]
  %.04246.us = phi i32 [ %66, %._crit_edge.us ], [ 1, %.preheader.us.preheader ]
  %14 = mul i32 %.04246.us, %11
  br label %15

15:                                               ; preds = %.preheader.us, %15
  %indvars.iv = phi i64 [ 1, %.preheader.us ], [ %indvars.iv.next, %15 ]
  %.145.us = phi float [ %.04047.us, %.preheader.us ], [ %.2.us, %15 ]
  %16 = trunc nuw i64 %indvars.iv to i32
  %17 = add i32 %14, %16
  %18 = zext i32 %17 to i64
  %19 = getelementptr inbounds nuw float, ptr %1, i64 %18
  %20 = load float, ptr %19, align 4, !tbaa !31
  %21 = add i32 %17, -1
  %22 = zext i32 %21 to i64
  %23 = getelementptr inbounds nuw float, ptr %1, i64 %22
  %24 = load float, ptr %23, align 4, !tbaa !31
  %25 = fneg float %24
  %26 = tail call float @llvm.fmuladd.f32(float %20, float 8.000000e+00, float %25)
  %27 = add i32 %17, 1
  %28 = zext i32 %27 to i64
  %29 = getelementptr inbounds nuw float, ptr %1, i64 %28
  %30 = load float, ptr %29, align 4, !tbaa !31
  %31 = fsub float %26, %30
  %32 = sub i32 %17, %11
  %33 = zext i32 %32 to i64
  %34 = getelementptr inbounds nuw float, ptr %1, i64 %33
  %35 = load float, ptr %34, align 4, !tbaa !31
  %36 = fsub float %31, %35
  %37 = add i32 %17, %11
  %38 = zext i32 %37 to i64
  %39 = getelementptr inbounds nuw float, ptr %1, i64 %38
  %40 = load float, ptr %39, align 4, !tbaa !31
  %41 = fsub float %36, %40
  %42 = sub i32 %21, %11
  %43 = zext i32 %42 to i64
  %44 = getelementptr inbounds nuw float, ptr %1, i64 %43
  %45 = load float, ptr %44, align 4, !tbaa !31
  %46 = fsub float %41, %45
  %47 = add i32 %21, %11
  %48 = zext i32 %47 to i64
  %49 = getelementptr inbounds nuw float, ptr %1, i64 %48
  %50 = load float, ptr %49, align 4, !tbaa !31
  %51 = fsub float %46, %50
  %52 = sub i32 %27, %11
  %53 = zext i32 %52 to i64
  %54 = getelementptr inbounds nuw float, ptr %1, i64 %53
  %55 = load float, ptr %54, align 4, !tbaa !31
  %56 = fsub float %51, %55
  %57 = add i32 %27, %11
  %58 = zext i32 %57 to i64
  %59 = getelementptr inbounds nuw float, ptr %1, i64 %58
  %60 = load float, ptr %59, align 4, !tbaa !31
  %61 = fsub float %56, %60
  %62 = tail call float @llvm.fabs.f32(float %61)
  %63 = fmul float %62, 0x3FD5555560000000
  %64 = getelementptr inbounds nuw float, ptr %2, i64 %18
  store float %63, ptr %64, align 4, !tbaa !31
  %65 = fcmp ogt float %63, %.145.us
  %.2.us = select i1 %65, float %63, float %.145.us
  %indvars.iv.next = add nuw nsw i64 %indvars.iv, 1
  %exitcond.not = icmp eq i64 %indvars.iv.next, %wide.trip.count
  br i1 %exitcond.not, label %._crit_edge.us, label %15, !llvm.loop !203

._crit_edge.us:                                   ; preds = %15
  %66 = add nuw i32 %.04246.us, 1
  %exitcond55.not = icmp eq i32 %66, %7
  br i1 %exitcond55.not, label %._crit_edge48, label %.preheader.us, !llvm.loop !204

._crit_edge48:                                    ; preds = %._crit_edge.us
  %67 = fdiv float 1.000000e+00, %.2.us
  br label %.lr.ph.preheader

.lr.ph.preheader:                                 ; preds = %._crit_edge48, %.preheader.lr.ph
  %68 = phi float [ %67, %._crit_edge48 ], [ 0x7FF0000000000000, %.preheader.lr.ph ]
  %wide.trip.count59 = zext i32 %7 to i64
  br label %.lr.ph

._crit_edge:                                      ; preds = %.lr.ph, %3
  ret void

.lr.ph:                                           ; preds = %.lr.ph.preheader, %.lr.ph
  %indvars.iv56 = phi i64 [ 1, %.lr.ph.preheader ], [ %indvars.iv.next57, %.lr.ph ]
  %69 = getelementptr inbounds nuw float, ptr %2, i64 %indvars.iv56
  %70 = load float, ptr %69, align 4, !tbaa !31
  %71 = fmul float %68, %70
  store float %71, ptr %69, align 4, !tbaa !31
  %indvars.iv.next57 = add nuw nsw i64 %indvars.iv56, 1
  %exitcond60.not = icmp eq i64 %indvars.iv.next57, %wide.trip.count59
  br i1 %exitcond60.not, label %._crit_edge, label %.lr.ph, !llvm.loop !205
}